; Function Attrs: nounwind uwtable
define internal void @value_free(ptr noundef captures(none) %0) #0 {
  %2 = load ptr, ptr %0, align 8, !tbaa !12
  %.not.i = icmp eq ptr %2, null
  br i1 %.not.i, label %4, label %3

3:                                                ; preds = %1
  tail call void @free(ptr noundef nonnull %2) #12
  br label %4

4:                                                ; preds = %3, %1
  %5 = getelementptr inbounds nuw i8, ptr %0, i64 8
  %6 = load ptr, ptr %5, align 8, !tbaa !15
  %.not11.i = icmp eq ptr %6, null
  br i1 %.not11.i, label %11, label %7

7:                                                ; preds = %4
  tail call void @free(ptr noundef nonnull %6) #12
  %8 = getelementptr inbounds nuw i8, ptr %0, i64 16
  %9 = load ptr, ptr %8, align 8, !tbaa !16
  %.not13.i = icmp eq ptr %9, null
  br i1 %.not13.i, label %value_free_contents.exit, label %10

10:                                               ; preds = %7
  tail call void @free(ptr noundef nonnull %9) #12
  br label %value_free_contents.exit

11:                                               ; preds = %4
  %12 = getelementptr inbounds nuw i8, ptr %0, i64 16
  %13 = load ptr, ptr %12, align 8, !tbaa !16
  %.not12.i = icmp eq ptr %13, null
  br i1 %.not12.i, label %value_free_contents.exit, label %14

14:                                               ; preds = %11
  tail call void @sk_free(ptr noundef nonnull %13) #12
  br label %value_free_contents.exit

value_free_contents.exit:                         ; preds = %7, %10, %11, %14
  tail call void @free(ptr noundef nonnull %0) #12
  ret void
}